target datalayout = "e-m:e-p270:32:32-p271:32:32-p272:64:64-i64:64-i128:128-f80:128-n8:16:32:64-S128"
target triple = "x86_64-pc-linux-gnu"

%struct.mi_segment_s = type { %struct.mi_memid_s, i8, i8, i64, ptr, ptr, ptr, i8, i8, i64, i64, i64, i64, i64, i64, ptr, ptr, i64, i64, i32, [1 x %struct.mi_page_s] }
%struct.mi_memid_s = type { %union.anon, i8, i8, i8, i32 }
%union.anon = type { %struct.mi_memid_os_info }
%struct.mi_memid_os_info = type { ptr, i64 }
%struct.mi_page_s = type { i8, i8, i16, i16, %union.mi_page_flags_s, i8, ptr, ptr, i16, i8, i8, i64, ptr, i64, i64, ptr, ptr }
%union.mi_page_flags_s = type { i8 }
%struct.mi_block_s = type { i64 }

@.str = private unnamed_addr constant [8 x i8] c"mi_free\00", align 1

; Function Attrs: inlinehint nounwind uwtable
define internal void @mi_block_set_nextx(ptr noundef %0, ptr noundef %1, ptr noundef %2, ptr noundef %3) #0 {
  %5 = alloca ptr, align 8
  %6 = alloca ptr, align 8
  %7 = alloca ptr, align 8
  %8 = alloca ptr, align 8
  store ptr %0, ptr %5, align 8, !tbaa !7
  store ptr %1, ptr %6, align 8, !tbaa !18
  store ptr %2, ptr %7, align 8, !tbaa !18
  store ptr %3, ptr %8, align 8, !tbaa !37
  %9 = load ptr, ptr %7, align 8, !tbaa !18
  %10 = ptrtoint ptr %9 to i64
  %11 = load ptr, ptr %6, align 8, !tbaa !18
  %12 = getelementptr inbounds nuw %struct.mi_block_s, ptr %11, i32 0, i32 0
  store i64 %10, ptr %12, align 8, !tbaa !35
  ret void
}

; Function Attrs: inlinehint nounwind uwtable
define internal zeroext i1 @mi_page_is_in_full(ptr noundef %0) #0 {
  %2 = alloca ptr, align 8
  store ptr %0, ptr %2, align 8, !tbaa !13
  %3 = load ptr, ptr %2, align 8, !tbaa !13
  %4 = getelementptr inbounds nuw %struct.mi_page_s, ptr %3, i32 0, i32 4
  %5 = load i8, ptr %4, align 2
  %6 = and i8 %5, 1
  %7 = icmp ne i8 %6, 0
  ret i1 %7
}

; Function Attrs: inlinehint nounwind uwtable
define internal void @mi_block_set_next(ptr noundef %0, ptr noundef %1, ptr noundef %2) #0 {
  %4 = alloca ptr, align 8
  %5 = alloca ptr, align 8
  %6 = alloca ptr, align 8
  store ptr %0, ptr %4, align 8, !tbaa !13
  store ptr %1, ptr %5, align 8, !tbaa !18
  store ptr %2, ptr %6, align 8, !tbaa !18
  %7 = load ptr, ptr %4, align 8, !tbaa !13
  %8 = load ptr, ptr %5, align 8, !tbaa !18
  %9 = load ptr, ptr %6, align 8, !tbaa !18
  call void @mi_block_set_nextx(ptr noundef %7, ptr noundef %8, ptr noundef %9, ptr noundef null) #14
  ret void
}

; Function Attrs: nounwind uwtable
define internal void @mi_stat_free(ptr noundef %0, ptr noundef %1) #3 {
  %3 = alloca ptr, align 8
  %4 = alloca ptr, align 8
  store ptr %0, ptr %3, align 8, !tbaa !13
  store ptr %1, ptr %4, align 8, !tbaa !18
  ret void
}

; Function Attrs: nounwind uwtable
define internal void @mi_check_padding(ptr noundef %0, ptr noundef %1) #3 {
  %3 = alloca ptr, align 8
  %4 = alloca ptr, align 8
  store ptr %0, ptr %3, align 8, !tbaa !13
  store ptr %1, ptr %4, align 8, !tbaa !18
  ret void
}

; Function Attrs: inlinehint nounwind uwtable
define internal zeroext i1 @mi_check_is_double_free(ptr noundef %0, ptr noundef %1) #0 {
  %3 = alloca ptr, align 8
  %4 = alloca ptr, align 8
  store ptr %0, ptr %3, align 8, !tbaa !13
  store ptr %1, ptr %4, align 8, !tbaa !18
  ret i1 false
}

; Function Attrs: inlinehint nounwind uwtable
define internal i64 @_mi_segment_page_idx_of(ptr noundef %0, ptr noundef %1) #0 {
  %3 = alloca ptr, align 8
  %4 = alloca ptr, align 8
  %5 = alloca i64, align 8
  %6 = alloca i64, align 8
  store ptr %0, ptr %3, align 8, !tbaa !9
  store ptr %1, ptr %4, align 8, !tbaa !7
  call void @llvm.lifetime.start.p0(i64 8, ptr %5) #15
  %7 = load ptr, ptr %4, align 8, !tbaa !7
  %8 = load ptr, ptr %3, align 8, !tbaa !9
  %9 = ptrtoint ptr %7 to i64
  %10 = ptrtoint ptr %8 to i64
  %11 = sub i64 %9, %10
  store i64 %11, ptr %5, align 8, !tbaa !3
  call void @llvm.lifetime.start.p0(i64 8, ptr %6) #15
  %12 = load i64, ptr %5, align 8, !tbaa !3
  %13 = load ptr, ptr %3, align 8, !tbaa !9
  %14 = getelementptr inbounds nuw %struct.mi_segment_s, ptr %13, i32 0, i32 18
  %15 = load i64, ptr %14, align 8, !tbaa !50
  %16 = lshr i64 %12, %15
  store i64 %16, ptr %6, align 8, !tbaa !3
  %17 = load i64, ptr %6, align 8, !tbaa !3
  call void @llvm.lifetime.end.p0(i64 8, ptr %6) #15
  call void @llvm.lifetime.end.p0(i64 8, ptr %5) #15
  ret i64 %17
}

; Function Attrs: inlinehint nounwind uwtable
define internal ptr @_mi_ptr_segment(ptr noundef %0) #0 {
  %2 = alloca ptr, align 8
  %3 = alloca ptr, align 8
  store ptr %0, ptr %2, align 8, !tbaa !7
  call void @llvm.lifetime.start.p0(i64 8, ptr %3) #15
  %4 = load ptr, ptr %2, align 8, !tbaa !7
  %5 = ptrtoint ptr %4 to i64
  %6 = sub i64 %5, 1
  %7 = and i64 %6, -4194304
  %8 = inttoptr i64 %7 to ptr
  store ptr %8, ptr %3, align 8, !tbaa !9
  %9 = load ptr, ptr %3, align 8, !tbaa !9
  %10 = ptrtoint ptr %9 to i64
  %11 = icmp sle i64 %10, 0
  br i1 %11, label %12, label %13

12:                                               ; preds = %1
  br label %15

13:                                               ; preds = %1
  %14 = load ptr, ptr %3, align 8, !tbaa !9
  br label %15

15:                                               ; preds = %13, %12
  %16 = phi ptr [ null, %12 ], [ %14, %13 ]
  call void @llvm.lifetime.end.p0(i64 8, ptr %3) #15
  ret ptr %16
}

; Function Attrs: inlinehint nounwind uwtable
define internal void @mi_free_block_local(ptr noundef %0, ptr noundef %1, i1 noundef zeroext %2, i1 noundef zeroext %3) #0 {
  %5 = alloca ptr, align 8
  %6 = alloca ptr, align 8
  %7 = alloca i8, align 1
  %8 = alloca i8, align 1
  store ptr %0, ptr %5, align 8, !tbaa !13
  store ptr %1, ptr %6, align 8, !tbaa !18
  %9 = zext i1 %2 to i8
  store i8 %9, ptr %7, align 1, !tbaa !11
  %10 = zext i1 %3 to i8
  store i8 %10, ptr %8, align 1, !tbaa !11
  %11 = load ptr, ptr %5, align 8, !tbaa !13
  %12 = load ptr, ptr %6, align 8, !tbaa !18
  %13 = call zeroext i1 @mi_check_is_double_free(ptr noundef %11, ptr noundef %12) #14
  %14 = xor i1 %13, true
  %15 = xor i1 %14, true
  %16 = zext i1 %15 to i32
  %17 = sext i32 %16 to i64
  %18 = call i64 @llvm.expect.i64(i64 %17, i64 0)
  %19 = icmp ne i64 %18, 0
  br i1 %19, label %20, label %21

20:                                               ; preds = %4
  br label %73

21:                                               ; preds = %4
  %22 = load ptr, ptr %5, align 8, !tbaa !13
  %23 = load ptr, ptr %6, align 8, !tbaa !18
  call void @mi_check_padding(ptr noundef %22, ptr noundef %23) #14
  %24 = load i8, ptr %7, align 1, !tbaa !11, !range !15, !noundef !16
  %25 = trunc i8 %24 to i1
  br i1 %25, label %26, label %29

26:                                               ; preds = %21
  %27 = load ptr, ptr %5, align 8, !tbaa !13
  %28 = load ptr, ptr %6, align 8, !tbaa !18
  call void @mi_stat_free(ptr noundef %27, ptr noundef %28) #14
  br label %29

29:                                               ; preds = %26, %21
  %30 = load i8, ptr %7, align 1, !tbaa !11, !range !15, !noundef !16
  %31 = trunc i8 %30 to i1
  br i1 %31, label %32, label %33

32:                                               ; preds = %29
  br label %33

33:                                               ; preds = %32, %29
  %34 = load ptr, ptr %5, align 8, !tbaa !13
  %35 = load ptr, ptr %6, align 8, !tbaa !18
  %36 = load ptr, ptr %5, align 8, !tbaa !13
  %37 = getelementptr inbounds nuw %struct.mi_page_s, ptr %36, i32 0, i32 7
  %38 = load ptr, ptr %37, align 8, !tbaa !30
  call void @mi_block_set_next(ptr noundef %34, ptr noundef %35, ptr noundef %38) #14
  %39 = load ptr, ptr %6, align 8, !tbaa !18
  %40 = load ptr, ptr %5, align 8, !tbaa !13
  %41 = getelementptr inbounds nuw %struct.mi_page_s, ptr %40, i32 0, i32 7
  store ptr %39, ptr %41, align 8, !tbaa !30
  %42 = load ptr, ptr %5, align 8, !tbaa !13
  %43 = getelementptr inbounds nuw %struct.mi_page_s, ptr %42, i32 0, i32 8
  %44 = load i16, ptr %43, align 8, !tbaa !31
  %45 = add i16 %44, -1
  store i16 %45, ptr %43, align 8, !tbaa !31
  %46 = zext i16 %45 to i32
  %47 = icmp eq i32 %46, 0
  %48 = xor i1 %47, true
  %49 = xor i1 %48, true
  %50 = zext i1 %49 to i32
  %51 = sext i32 %50 to i64
  %52 = call i64 @llvm.expect.i64(i64 %51, i64 0)
  %53 = icmp ne i64 %52, 0
  br i1 %53, label %54, label %56

54:                                               ; preds = %33
  %55 = load ptr, ptr %5, align 8, !tbaa !13
  call void @_mi_page_retire(ptr noundef %55) #14
  br label %73

56:                                               ; preds = %33
  %57 = load i8, ptr %8, align 1, !tbaa !11, !range !15, !noundef !16
  %58 = trunc i8 %57 to i1
  br i1 %58, label %59, label %62

59:                                               ; preds = %56
  %60 = load ptr, ptr %5, align 8, !tbaa !13
  %61 = call zeroext i1 @mi_page_is_in_full(ptr noundef %60) #14
  br label %62

62:                                               ; preds = %59, %56
  %63 = phi i1 [ false, %56 ], [ %61, %59 ]
  %64 = xor i1 %63, true
  %65 = xor i1 %64, true
  %66 = zext i1 %65 to i32
  %67 = sext i32 %66 to i64
  %68 = call i64 @llvm.expect.i64(i64 %67, i64 0)
  %69 = icmp ne i64 %68, 0
  br i1 %69, label %70, label %72

70:                                               ; preds = %62
  %71 = load ptr, ptr %5, align 8, !tbaa !13
  call void @_mi_page_unfull(ptr noundef %71) #14
  br label %72

72:                                               ; preds = %70, %62
  br label %73

73:                                               ; preds = %20, %72, %54
  ret void
}

; Function Attrs: inlinehint nounwind uwtable
define internal ptr @_mi_segment_page_of(ptr noundef %0, ptr noundef %1) #0 {
  %3 = alloca ptr, align 8
  %4 = alloca ptr, align 8
  %5 = alloca i64, align 8
  store ptr %0, ptr %3, align 8, !tbaa !9
  store ptr %1, ptr %4, align 8, !tbaa !7
  call void @llvm.lifetime.start.p0(i64 8, ptr %5) #15
  %6 = load ptr, ptr %3, align 8, !tbaa !9
  %7 = load ptr, ptr %4, align 8, !tbaa !7
  %8 = call i64 @_mi_segment_page_idx_of(ptr noundef %6, ptr noundef %7) #14
  store i64 %8, ptr %5, align 8, !tbaa !3
  %9 = load ptr, ptr %3, align 8, !tbaa !9
  %10 = getelementptr inbounds nuw %struct.mi_segment_s, ptr %9, i32 0, i32 20
  %11 = load i64, ptr %5, align 8, !tbaa !3
  %12 = getelementptr inbounds nuw [1 x %struct.mi_page_s], ptr %10, i64 0, i64 %11
  call void @llvm.lifetime.end.p0(i64 8, ptr %5) #15
  ret ptr %12
}

; Function Attrs: inlinehint nounwind uwtable
define internal i64 @_mi_prim_thread_id() #0 {
  %1 = call ptr @llvm.thread.pointer()
  %2 = ptrtoint ptr %1 to i64
  ret i64 %2
}

; Function Attrs: inlinehint nounwind uwtable
define internal ptr @mi_checked_ptr_segment(ptr noundef %0, ptr noundef %1) #0 {
  %3 = alloca ptr, align 8
  %4 = alloca ptr, align 8
  %5 = alloca ptr, align 8
  %6 = alloca ptr, align 8
  %7 = alloca i32, align 4
  store ptr %0, ptr %4, align 8, !tbaa !7
  store ptr %1, ptr %5, align 8, !tbaa !20
  call void @llvm.lifetime.start.p0(i64 8, ptr %6) #15
  %8 = load ptr, ptr %4, align 8, !tbaa !7
  %9 = call ptr @_mi_ptr_segment(ptr noundef %8) #14
  store ptr %9, ptr %6, align 8, !tbaa !9
  %10 = load ptr, ptr %6, align 8, !tbaa !9
  %11 = icmp eq ptr %10, null
  %12 = xor i1 %11, true
  %13 = xor i1 %12, true
  %14 = zext i1 %13 to i32
  %15 = sext i32 %14 to i64
  %16 = call i64 @llvm.expect.i64(i64 %15, i64 0)
  %17 = icmp ne i64 %16, 0
  br i1 %17, label %18, label %20

18:                                               ; preds = %2
  %19 = load ptr, ptr %6, align 8, !tbaa !9
  store ptr %19, ptr %3, align 8
  store i32 1, ptr %7, align 4
  br label %22

20:                                               ; preds = %2
  %21 = load ptr, ptr %6, align 8, !tbaa !9
  store ptr %21, ptr %3, align 8
  store i32 1, ptr %7, align 4
  br label %22

22:                                               ; preds = %20, %18
  call void @llvm.lifetime.end.p0(i64 8, ptr %6) #15
  %23 = load ptr, ptr %3, align 8
  ret ptr %23
}

; Function Attrs: nounwind uwtable
define hidden void @mi_free(ptr noundef %0) #3 {
  %2 = alloca ptr, align 8
  %3 = alloca ptr, align 8
  %4 = alloca i32, align 4
  %5 = alloca i8, align 1
  %6 = alloca i64, align 8
  %7 = alloca ptr, align 8
  %8 = alloca ptr, align 8
  store ptr %0, ptr %2, align 8, !tbaa !7
  call void @llvm.lifetime.start.p0(i64 8, ptr %3) #15
  %9 = load ptr, ptr %2, align 8, !tbaa !7
  %10 = call ptr @mi_checked_ptr_segment(ptr noundef %9, ptr noundef @.str) #14
  store ptr %10, ptr %3, align 8, !tbaa !9
  %11 = load ptr, ptr %3, align 8, !tbaa !9
  %12 = icmp eq ptr %11, null
  %13 = xor i1 %12, true
  %14 = xor i1 %13, true
  %15 = zext i1 %14 to i32
  %16 = sext i32 %15 to i64
  %17 = call i64 @llvm.expect.i64(i64 %16, i64 0)
  %18 = icmp ne i64 %17, 0
  br i1 %18, label %19, label %20

19:                                               ; preds = %1
  store i32 1, ptr %4, align 4
  br label %65

20:                                               ; preds = %1
  call void @llvm.lifetime.start.p0(i64 1, ptr %5) #15
  %21 = call i64 @_mi_prim_thread_id() #14
  %22 = load ptr, ptr %3, align 8, !tbaa !9
  %23 = getelementptr inbounds nuw %struct.mi_segment_s, ptr %22, i32 0, i32 17
  %24 = load atomic i64, ptr %23 monotonic, align 8
  store i64 %24, ptr %6, align 8
  %25 = load i64, ptr %6, align 8, !tbaa !3
  %26 = icmp eq i64 %21, %25
  %27 = zext i1 %26 to i8
  store i8 %27, ptr %5, align 1, !tbaa !11
  call void @llvm.lifetime.start.p0(i64 8, ptr %7) #15
  %28 = load ptr, ptr %3, align 8, !tbaa !9
  %29 = load ptr, ptr %2, align 8, !tbaa !7
  %30 = call ptr @_mi_segment_page_of(ptr noundef %28, ptr noundef %29) #14
  store ptr %30, ptr %7, align 8, !tbaa !13
  %31 = load i8, ptr %5, align 1, !tbaa !11, !range !15, !noundef !16
  %32 = trunc i8 %31 to i1
  %33 = xor i1 %32, true
  %34 = xor i1 %33, true
  %35 = zext i1 %34 to i32
  %36 = sext i32 %35 to i64
  %37 = call i64 @llvm.expect.i64(i64 %36, i64 1)
  %38 = icmp ne i64 %37, 0
  br i1 %38, label %39, label %60

39:                                               ; preds = %20
  %40 = load ptr, ptr %7, align 8, !tbaa !13
  %41 = getelementptr inbounds nuw %struct.mi_page_s, ptr %40, i32 0, i32 4
  %42 = load i8, ptr %41, align 2, !tbaa !17
  %43 = zext i8 %42 to i32
  %44 = icmp eq i32 %43, 0
  %45 = xor i1 %44, true
  %46 = xor i1 %45, true
  %47 = zext i1 %46 to i32
  %48 = sext i32 %47 to i64
  %49 = call i64 @llvm.expect.i64(i64 %48, i64 1)
  %50 = icmp ne i64 %49, 0
  br i1 %50, label %51, label %55

51:                                               ; preds = %39
  call void @llvm.lifetime.start.p0(i64 8, ptr %8) #15
  %52 = load ptr, ptr %2, align 8, !tbaa !7
  store ptr %52, ptr %8, align 8, !tbaa !18
  %53 = load ptr, ptr %7, align 8, !tbaa !13
  %54 = load ptr, ptr %8, align 8, !tbaa !18
  call void @mi_free_block_local(ptr noundef %53, ptr noundef %54, i1 noundef zeroext true, i1 noundef zeroext false) #14
  call void @llvm.lifetime.end.p0(i64 8, ptr %8) #15
  br label %59

55:                                               ; preds = %39
  %56 = load ptr, ptr %7, align 8, !tbaa !13
  %57 = load ptr, ptr %3, align 8, !tbaa !9
  %58 = load ptr, ptr %2, align 8, !tbaa !7
  call void @mi_free_generic_local(ptr noundef %56, ptr noundef %57, ptr noundef %58) #14
  br label %59

59:                                               ; preds = %55, %51
  br label %64

60:                                               ; preds = %20
  %61 = load ptr, ptr %7, align 8, !tbaa !13
  %62 = load ptr, ptr %3, align 8, !tbaa !9
  %63 = load ptr, ptr %2, align 8, !tbaa !7
  call void @mi_free_generic_mt(ptr noundef %61, ptr noundef %62, ptr noundef %63) #14
  br label %64

64:                                               ; preds = %60, %59
  call void @llvm.lifetime.end.p0(i64 8, ptr %7) #15
  call void @llvm.lifetime.end.p0(i64 1, ptr %5) #15
  store i32 0, ptr %4, align 4
  br label %65

65:                                               ; preds = %64, %19
  call void @llvm.lifetime.end.p0(i64 8, ptr %3) #15
  %66 = load i32, ptr %4, align 4
  switch i32 %66, label %68 [
    i32 0, label %67
    i32 1, label %67
  ]

67:                                               ; preds = %65, %65
  ret void

68:                                               ; preds = %65
  unreachable
}

; Function Attrs: nounwind uwtable
define void @_ZdlPvRKSt9nothrow_t(ptr noundef %0, ptr noundef %1) #3 {
  %3 = alloca ptr, align 8
  %4 = alloca ptr, align 8
  store ptr %0, ptr %3, align 8, !tbaa !7
  store ptr %1, ptr %4, align 8, !tbaa !7
  %5 = load ptr, ptr %3, align 8, !tbaa !7
  call void @mi_free(ptr noundef %5) #14
  ret void
}